target datalayout = "e-m:e-p270:32:32-p271:32:32-p272:64:64-i64:64-i128:128-f80:128-n8:16:32:64-S128"
target triple = "x86_64-pc-linux-gnu"

%struct.pairingheap_node = type { ptr, ptr, ptr }
%struct.SnapshotData = type { i32, i32, i32, ptr, i32, ptr, i32, i8, i8, i8, i32, i32, ptr, i32, i32, %struct.pairingheap_node, i64 }
%struct.ActiveSnapshotElt = type { ptr, i32, ptr }

@.str.1 = private unnamed_addr constant [10 x i8] c"snapmgr.c\00", align 1
@ActiveSnapshot = internal global ptr null, align 8
@.str.4 = private unnamed_addr constant [71 x i8] c"cannot modify commandid in active snapshot during a parallel operation\00", align 1
@__func__.UpdateActiveSnapshotCommandId = private unnamed_addr constant [30 x i8] c"UpdateActiveSnapshotCommandId\00", align 1

; Function Attrs: nounwind uwtable
define dso_local void @UpdateActiveSnapshotCommandId() #0 {
  %1 = alloca i32, align 4
  %2 = alloca i32, align 4
  call void @llvm.lifetime.start.p0(i64 4, ptr %1) #14
  call void @llvm.lifetime.start.p0(i64 4, ptr %2) #14
  %3 = load ptr, ptr @ActiveSnapshot, align 8
  %4 = getelementptr inbounds nuw %struct.ActiveSnapshotElt, ptr %3, i32 0, i32 0
  %5 = load ptr, ptr %4, align 8
  %6 = getelementptr inbounds nuw %struct.SnapshotData, ptr %5, i32 0, i32 10
  %7 = load i32, ptr %6, align 8
  store i32 %7, ptr %1, align 4
  %8 = call i32 @GetCurrentCommandId(i1 noundef zeroext false)
  store i32 %8, ptr %2, align 4
  %9 = call zeroext i1 @IsInParallelMode()
  br i1 %9, label %10, label %25

10:                                               ; preds = %0
  %11 = load i32, ptr %1, align 4
  %12 = load i32, ptr %2, align 4
  %13 = icmp ne i32 %11, %12
  br i1 %13, label %14, label %25

14:                                               ; preds = %10
  br label %15

15:                                               ; preds = %14
  br i1 true, label %16, label %18

16:                                               ; preds = %15
  %17 = call zeroext i1 @errstart_cold(i32 noundef 21, ptr noundef null) #13
  br i1 %17, label %20, label %22

18:                                               ; preds = %15
  %19 = call zeroext i1 @errstart(i32 noundef 21, ptr noundef null)
  br i1 %19, label %20, label %22

20:                                               ; preds = %18, %16
  %21 = call i32 (ptr, ...) @errmsg_internal(ptr noundef @.str.4)
  call void @errfinish(ptr noundef @.str.1, i32 noundef 692, ptr noundef @__func__.UpdateActiveSnapshotCommandId)
  br label %22

22:                                               ; preds = %20, %18, %16
  unreachable

23:                                               ; No predecessors!
  br label %24

24:                                               ; preds = %23
  br label %25

25:                                               ; preds = %24, %10, %0
  %26 = load i32, ptr %2, align 4
  %27 = load ptr, ptr @ActiveSnapshot, align 8
  %28 = getelementptr inbounds nuw %struct.ActiveSnapshotElt, ptr %27, i32 0, i32 0
  %29 = load ptr, ptr %28, align 8
  %30 = getelementptr inbounds nuw %struct.SnapshotData, ptr %29, i32 0, i32 10
  store i32 %26, ptr %30, align 8
  call void @llvm.lifetime.end.p0(i64 4, ptr %2) #14
  call void @llvm.lifetime.end.p0(i64 4, ptr %1) #14
  ret void
}