; Function Attrs: nounwind uwtable
define dso_local void @UpdateActiveSnapshotCommandId() local_unnamed_addr #0 {
  %1 = load ptr, ptr @ActiveSnapshot, align 8
  %2 = load ptr, ptr %1, align 8
  %3 = getelementptr inbounds nuw i8, ptr %2, i64 48
  %4 = load i32, ptr %3, align 8
  %5 = tail call i32 @GetCurrentCommandId(i1 noundef zeroext false) #18
  %6 = tail call zeroext i1 @IsInParallelMode() #18
  %.not = icmp ne i32 %4, %5
  %or.cond.not = select i1 %6, i1 %.not, i1 false
  br i1 %or.cond.not, label %7, label %10

7:                                                ; preds = %0
  %8 = tail call zeroext i1 @errstart_cold(i32 noundef 21, ptr noundef null) #17
  tail call void @llvm.assume(i1 %8)
  %9 = tail call i32 (ptr, ...) @errmsg_internal(ptr noundef nonnull @.str.4) #18
  tail call void @errfinish(ptr noundef nonnull @.str.1, i32 noundef 692, ptr noundef nonnull @__func__.UpdateActiveSnapshotCommandId) #18
  unreachable

10:                                               ; preds = %0
  %11 = load ptr, ptr @ActiveSnapshot, align 8
  %12 = load ptr, ptr %11, align 8
  %13 = getelementptr inbounds nuw i8, ptr %12, i64 48
  store i32 %5, ptr %13, align 8
  ret void
}